target datalayout = "e-m:e-p270:32:32-p271:32:32-p272:64:64-i64:64-i128:128-f80:128-n8:16:32:64-S128"
target triple = "x86_64-pc-linux-gnu"

%struct._bt_uuid_t = type { ptr, ptr }

@bluetooth_uuids = global ptr null, align 8
@bt_uuids = internal global ptr null, align 8
@num_bt_uuids = internal global i32 0, align 4

; Function Attrs: nounwind uwtable
define internal void @bt_uuids_post_update_cb() #1 {
  %1 = alloca i32, align 4
  %2 = load i32, ptr @num_bt_uuids, align 4
  %3 = icmp ne i32 %2, 0
  br i1 %3, label %4, label %27

4:                                                ; preds = %0
  store i32 0, ptr %1, align 4
  br label %5

5:                                                ; preds = %23, %4
  %6 = load i32, ptr %1, align 4
  %7 = load i32, ptr @num_bt_uuids, align 4
  %8 = icmp ult i32 %6, %7
  br i1 %8, label %9, label %26

9:                                                ; preds = %5
  %10 = load ptr, ptr @bluetooth_uuids, align 8
  %11 = load ptr, ptr @bt_uuids, align 8
  %12 = load i32, ptr %1, align 4
  %13 = zext i32 %12 to i64
  %14 = getelementptr %struct._bt_uuid_t, ptr %11, i64 %13
  %15 = getelementptr inbounds %struct._bt_uuid_t, ptr %14, i32 0, i32 0
  %16 = load ptr, ptr %15, align 8
  %17 = load ptr, ptr @bt_uuids, align 8
  %18 = load i32, ptr %1, align 4
  %19 = zext i32 %18 to i64
  %20 = getelementptr %struct._bt_uuid_t, ptr %17, i64 %19
  %21 = getelementptr inbounds %struct._bt_uuid_t, ptr %20, i32 0, i32 1
  %22 = load ptr, ptr %21, align 8
  call void @wmem_tree_insert_string(ptr noundef %10, ptr noundef %16, ptr noundef %22, i32 noundef 0)
  br label %23

23:                                               ; preds = %9
  %24 = load i32, ptr %1, align 4
  %25 = add i32 %24, 1
  store i32 %25, ptr %1, align 4
  br label %5, !llvm.loop !6

26:                                               ; preds = %5
  br label %27

27:                                               ; preds = %26, %0
  ret void
}