; Function Attrs: nounwind uwtable
define internal void @bt_uuids_post_update_cb() #1 {
  %1 = load i32, ptr @num_bt_uuids, align 4
  %.not = icmp eq i32 %1, 0
  br i1 %.not, label %.loopexit, label %.lr.ph

.lr.ph:                                           ; preds = %0, %.lr.ph
  %indvars.iv = phi i64 [ %indvars.iv.next, %.lr.ph ], [ 0, %0 ]
  %2 = load ptr, ptr @bluetooth_uuids, align 8
  %3 = load ptr, ptr @bt_uuids, align 8
  %4 = getelementptr %struct._bt_uuid_t, ptr %3, i64 %indvars.iv
  %5 = load ptr, ptr %4, align 8
  %6 = getelementptr inbounds nuw i8, ptr %4, i64 8
  %7 = load ptr, ptr %6, align 8
  tail call void @wmem_tree_insert_string(ptr noundef %2, ptr noundef %5, ptr noundef %7, i32 noundef 0) #9
  %indvars.iv.next = add nuw nsw i64 %indvars.iv, 1
  %8 = load i32, ptr @num_bt_uuids, align 4
  %9 = zext i32 %8 to i64
  %10 = icmp samesign ult i64 %indvars.iv.next, %9
  br i1 %10, label %.lr.ph, label %.loopexit, !llvm.loop !6

.loopexit:                                        ; preds = %.lr.ph, %0
  ret void
}